target datalayout = "e-m:e-p270:32:32-p271:32:32-p272:64:64-i64:64-i128:128-f80:128-n8:16:32:64-S128"
target triple = "x86_64-pc-linux-gnu"

@db_conn = dso_local global ptr null, align 8
@have_db_conn = dso_local global i8 0, align 1
@exit_code = dso_local global i32 0, align 4
@stderr = external global ptr, align 8
@.str.69 = private unnamed_addr constant [25 x i8] c"Input line must include \00", align 1
@.str.76 = private unnamed_addr constant [6 x i8] c"Stats\00", align 1
@.str.77 = private unnamed_addr constant [33 x i8] c"No valid entity in list command\0A\00", align 1
@.str.78 = private unnamed_addr constant [9 x i8] c"\22Stats\22\0A\00", align 1

; Function Attrs: nounwind uwtable
define internal void @_clear_it(i32 noundef %0, ptr noundef %1) #0 {
  %3 = alloca i32, align 4
  %4 = alloca ptr, align 8
  %5 = alloca i32, align 4
  %6 = alloca i32, align 4
  %7 = alloca i32, align 4
  store i32 %0, ptr %3, align 4
  store ptr %1, ptr %4, align 8
  call void @llvm.lifetime.start.p0(i64 4, ptr %5) #12
  store i32 0, ptr %5, align 4
  call void @llvm.lifetime.start.p0(i64 4, ptr %6) #12
  store i32 0, ptr %6, align 4
  %8 = load i8, ptr @have_db_conn, align 1, !range !12, !noundef !13
  %9 = trunc i8 %8 to i1
  br i1 %9, label %11, label %10

10:                                               ; preds = %2
  store i32 1, ptr @exit_code, align 4
  store i32 1, ptr %7, align 4
  br label %52

11:                                               ; preds = %2
  %12 = load ptr, ptr %4, align 8
  %13 = getelementptr inbounds ptr, ptr %12, i64 0
  %14 = load ptr, ptr %13, align 8
  %15 = icmp ne ptr %14, null
  br i1 %15, label %17, label %16

16:                                               ; preds = %11
  br label %40

17:                                               ; preds = %11
  %18 = load ptr, ptr %4, align 8
  %19 = getelementptr inbounds ptr, ptr %18, i64 0
  %20 = load ptr, ptr %19, align 8
  %21 = call i64 @strlen(ptr noundef %20) #16
  %22 = trunc i64 %21 to i32
  store i32 %22, ptr %6, align 4
  %23 = load ptr, ptr %4, align 8
  %24 = getelementptr inbounds ptr, ptr %23, i64 0
  %25 = load ptr, ptr %24, align 8
  %26 = load i32, ptr %6, align 4
  %27 = icmp sgt i32 %26, 1
  br i1 %27, label %28, label %30

28:                                               ; preds = %17
  %29 = load i32, ptr %6, align 4
  br label %31

30:                                               ; preds = %17
  br label %31

31:                                               ; preds = %30, %28
  %32 = phi i32 [ %29, %28 ], [ 1, %30 ]
  %33 = sext i32 %32 to i64
  %34 = call i32 @xstrncasecmp(ptr noundef %25, ptr noundef @.str.76, i64 noundef %33)
  %35 = icmp ne i32 %34, 0
  br i1 %35, label %39, label %36

36:                                               ; preds = %31
  %37 = load ptr, ptr @db_conn, align 8
  %38 = call i32 @slurmdb_clear_stats(ptr noundef %37)
  store i32 %38, ptr %5, align 4
  br label %47

39:                                               ; preds = %31
  br label %40

40:                                               ; preds = %39, %16
  store i32 1, ptr @exit_code, align 4
  %41 = load ptr, ptr @stderr, align 8
  %42 = call i32 (ptr, ptr, ...) @fprintf(ptr noundef %41, ptr noundef @.str.77) #12
  %43 = load ptr, ptr @stderr, align 8
  %44 = call i32 (ptr, ptr, ...) @fprintf(ptr noundef %43, ptr noundef @.str.69) #12
  %45 = load ptr, ptr @stderr, align 8
  %46 = call i32 (ptr, ptr, ...) @fprintf(ptr noundef %45, ptr noundef @.str.78) #12
  br label %47

47:                                               ; preds = %40, %36
  %48 = load i32, ptr %5, align 4
  %49 = icmp ne i32 %48, 0
  br i1 %49, label %50, label %51

50:                                               ; preds = %47
  store i32 1, ptr @exit_code, align 4
  br label %51

51:                                               ; preds = %50, %47
  store i32 0, ptr %7, align 4
  br label %52

52:                                               ; preds = %51, %10
  call void @llvm.lifetime.end.p0(i64 4, ptr %6) #12
  call void @llvm.lifetime.end.p0(i64 4, ptr %5) #12
  %53 = load i32, ptr %7, align 4
  switch i32 %53, label %55 [
    i32 0, label %54
    i32 1, label %54
  ]

54:                                               ; preds = %52, %52
  ret void

55:                                               ; preds = %52
  unreachable
}