; Function Attrs: nounwind uwtable
define internal fastcc void @_clear_it(ptr noundef readonly captures(none) %0) unnamed_addr #7 {
  %2 = load i8, ptr @have_db_conn, align 1, !range !14, !noundef !15
  %3 = trunc nuw i8 %2 to i1
  br i1 %3, label %5, label %4

4:                                                ; preds = %1
  store i32 1, ptr @exit_code, align 4
  br label %24

5:                                                ; preds = %1
  %6 = load ptr, ptr %0, align 8
  %.not = icmp eq ptr %6, null
  br i1 %.not, label %.critedge, label %7

7:                                                ; preds = %5
  %8 = tail call i64 @strlen(ptr noundef nonnull dereferenceable(1) %6) #21
  %9 = trunc i64 %8 to i32
  %10 = tail call i32 @llvm.smax.i32(i32 %9, i32 1)
  %11 = zext nneg i32 %10 to i64
  %12 = tail call i32 @xstrncasecmp(ptr noundef nonnull %6, ptr noundef nonnull @.str.76, i64 noundef %11) #15
  %.not6 = icmp eq i32 %12, 0
  br i1 %.not6, label %13, label %.critedge

13:                                               ; preds = %7
  %14 = load ptr, ptr @db_conn, align 8
  %15 = tail call i32 @slurmdb_clear_stats(ptr noundef %14) #15
  %16 = icmp eq i32 %15, 0
  br i1 %16, label %24, label %23

.critedge:                                        ; preds = %7, %5
  store i32 1, ptr @exit_code, align 4
  %17 = load ptr, ptr @stderr, align 8
  %18 = tail call i64 @fwrite(ptr nonnull @.str.77, i64 32, i64 1, ptr %17) #16
  %19 = load ptr, ptr @stderr, align 8
  %20 = tail call i64 @fwrite(ptr nonnull @.str.69, i64 24, i64 1, ptr %19) #16
  %21 = load ptr, ptr @stderr, align 8
  %22 = tail call i64 @fwrite(ptr nonnull @.str.78, i64 8, i64 1, ptr %21) #16
  br label %24

23:                                               ; preds = %13
  store i32 1, ptr @exit_code, align 4
  br label %24

24:                                               ; preds = %13, %23, %.critedge, %4
  ret void
}